target datalayout = "e-m:e-p270:32:32-p271:32:32-p272:64:64-i64:64-i128:128-f80:128-n8:16:32:64-S128"
target triple = "x86_64-pc-linux-gnu"

%struct.TValue = type { %union.Value, i8 }
%union.Value = type { ptr }
%struct.lconv = type { ptr, ptr, ptr, ptr, ptr, ptr, ptr, ptr, ptr, ptr, i8, i8, i8, i8, i8, i8, i8, i8, i8, i8, i8, i8, i8, i8 }

@.str = private unnamed_addr constant [5 x i8] c"%lld\00", align 1
@.str.8 = private unnamed_addr constant [6 x i8] c"%.15g\00", align 1
@.str.9 = private unnamed_addr constant [6 x i8] c"%.17g\00", align 1
@.str.10 = private unnamed_addr constant [12 x i8] c"-0123456789\00", align 1

; Function Attrs: nounwind uwtable
define internal i32 @tostringbuffFloat(double noundef %0, ptr noundef %1) #0 {
  %3 = alloca double, align 8
  %4 = alloca ptr, align 8
  %5 = alloca i32, align 4
  %6 = alloca double, align 8
  store double %0, ptr %3, align 8, !tbaa !20
  store ptr %1, ptr %4, align 8, !tbaa !24
  call void @llvm.lifetime.start.p0(i64 4, ptr %5) #10
  %7 = load ptr, ptr %4, align 8, !tbaa !24
  %8 = load double, ptr %3, align 8, !tbaa !20
  %9 = call i32 (ptr, i64, ptr, ...) @snprintf(ptr noundef %7, i64 noundef 64, ptr noundef @.str.8, double noundef %8) #10
  store i32 %9, ptr %5, align 4, !tbaa !4
  call void @llvm.lifetime.start.p0(i64 8, ptr %6) #10
  %10 = load ptr, ptr %4, align 8, !tbaa !24
  %11 = call double @strtod(ptr noundef %10, ptr noundef null) #10
  store double %11, ptr %6, align 8, !tbaa !20
  %12 = load double, ptr %6, align 8, !tbaa !20
  %13 = load double, ptr %3, align 8, !tbaa !20
  %14 = fcmp une double %12, %13
  br i1 %14, label %15, label %19

15:                                               ; preds = %2
  %16 = load ptr, ptr %4, align 8, !tbaa !24
  %17 = load double, ptr %3, align 8, !tbaa !20
  %18 = call i32 (ptr, i64, ptr, ...) @snprintf(ptr noundef %16, i64 noundef 64, ptr noundef @.str.9, double noundef %17) #10
  store i32 %18, ptr %5, align 4, !tbaa !4
  br label %19

19:                                               ; preds = %15, %2
  %20 = load ptr, ptr %4, align 8, !tbaa !24
  %21 = load ptr, ptr %4, align 8, !tbaa !24
  %22 = call i64 @strspn(ptr noundef %21, ptr noundef @.str.10) #11
  %23 = getelementptr inbounds nuw i8, ptr %20, i64 %22
  %24 = load i8, ptr %23, align 1, !tbaa !8
  %25 = sext i8 %24 to i32
  %26 = icmp eq i32 %25, 0
  br i1 %26, label %27, label %43

27:                                               ; preds = %19
  %28 = call ptr @localeconv() #10
  %29 = getelementptr inbounds nuw %struct.lconv, ptr %28, i32 0, i32 0
  %30 = load ptr, ptr %29, align 8, !tbaa !30
  %31 = getelementptr inbounds i8, ptr %30, i64 0
  %32 = load i8, ptr %31, align 1, !tbaa !8
  %33 = load ptr, ptr %4, align 8, !tbaa !24
  %34 = load i32, ptr %5, align 4, !tbaa !4
  %35 = add nsw i32 %34, 1
  store i32 %35, ptr %5, align 4, !tbaa !4
  %36 = sext i32 %34 to i64
  %37 = getelementptr inbounds i8, ptr %33, i64 %36
  store i8 %32, ptr %37, align 1, !tbaa !8
  %38 = load ptr, ptr %4, align 8, !tbaa !24
  %39 = load i32, ptr %5, align 4, !tbaa !4
  %40 = add nsw i32 %39, 1
  store i32 %40, ptr %5, align 4, !tbaa !4
  %41 = sext i32 %39 to i64
  %42 = getelementptr inbounds i8, ptr %38, i64 %41
  store i8 48, ptr %42, align 1, !tbaa !8
  br label %43

43:                                               ; preds = %27, %19
  %44 = load i32, ptr %5, align 4, !tbaa !4
  call void @llvm.lifetime.end.p0(i64 8, ptr %6) #10
  call void @llvm.lifetime.end.p0(i64 4, ptr %5) #10
  ret i32 %44
}

; Function Attrs: nounwind uwtable
define hidden i32 @luaO_tostringbuff(ptr noundef %0, ptr noundef %1) #0 {
  %3 = alloca ptr, align 8
  %4 = alloca ptr, align 8
  %5 = alloca i32, align 4
  store ptr %0, ptr %3, align 8, !tbaa !14
  store ptr %1, ptr %4, align 8, !tbaa !24
  call void @llvm.lifetime.start.p0(i64 4, ptr %5) #10
  %6 = load ptr, ptr %3, align 8, !tbaa !14
  %7 = getelementptr inbounds nuw %struct.TValue, ptr %6, i32 0, i32 1
  %8 = load i8, ptr %7, align 8, !tbaa !16
  %9 = zext i8 %8 to i32
  %10 = icmp eq i32 %9, 3
  br i1 %10, label %11, label %17

11:                                               ; preds = %2
  %12 = load ptr, ptr %4, align 8, !tbaa !24
  %13 = load ptr, ptr %3, align 8, !tbaa !14
  %14 = getelementptr inbounds nuw %struct.TValue, ptr %13, i32 0, i32 0
  %15 = load i64, ptr %14, align 8, !tbaa !8
  %16 = call i32 (ptr, i64, ptr, ...) @snprintf(ptr noundef %12, i64 noundef 64, ptr noundef @.str, i64 noundef %15) #10
  store i32 %16, ptr %5, align 4, !tbaa !4
  br label %23

17:                                               ; preds = %2
  %18 = load ptr, ptr %3, align 8, !tbaa !14
  %19 = getelementptr inbounds nuw %struct.TValue, ptr %18, i32 0, i32 0
  %20 = load double, ptr %19, align 8, !tbaa !8
  %21 = load ptr, ptr %4, align 8, !tbaa !24
  %22 = call i32 @tostringbuffFloat(double noundef %20, ptr noundef %21)
  store i32 %22, ptr %5, align 4, !tbaa !4
  br label %23

23:                                               ; preds = %17, %11
  %24 = load i32, ptr %5, align 4, !tbaa !4
  call void @llvm.lifetime.end.p0(i64 4, ptr %5) #10
  ret i32 %24
}