; Function Attrs: nounwind uwtable
define hidden i32 @luaO_tostringbuff(ptr noundef readonly captures(none) %0, ptr noundef captures(none) %1) local_unnamed_addr #3 {
  %3 = getelementptr inbounds nuw i8, ptr %0, i64 8
  %4 = load i8, ptr %3, align 8, !tbaa !7
  %5 = icmp eq i8 %4, 3
  br i1 %5, label %6, label %9

6:                                                ; preds = %2
  %7 = load i64, ptr %0, align 8, !tbaa !4
  %8 = tail call i32 (ptr, i64, ptr, ...) @snprintf(ptr noundef nonnull dereferenceable(1) %1, i64 noundef 64, ptr noundef nonnull @.str, i64 noundef %7) #18
  br label %tostringbuffFloat.exit

9:                                                ; preds = %2
  %10 = load double, ptr %0, align 8, !tbaa !4
  %11 = tail call i32 (ptr, i64, ptr, ...) @snprintf(ptr noundef nonnull dereferenceable(1) %1, i64 noundef 64, ptr noundef nonnull @.str.8, double noundef %10) #18
  %12 = tail call double @strtod(ptr noundef nonnull captures(none) %1, ptr noundef null) #18
  %13 = fcmp une double %12, %10
  br i1 %13, label %14, label %16

14:                                               ; preds = %9
  %15 = tail call i32 (ptr, i64, ptr, ...) @snprintf(ptr noundef nonnull dereferenceable(1) %1, i64 noundef 64, ptr noundef nonnull @.str.9, double noundef %10) #18
  br label %16

16:                                               ; preds = %14, %9
  %.0.i = phi i32 [ %15, %14 ], [ %11, %9 ]
  %17 = tail call i64 @strspn(ptr noundef nonnull %1, ptr noundef nonnull @.str.10) #19
  %18 = getelementptr inbounds nuw i8, ptr %1, i64 %17
  %19 = load i8, ptr %18, align 1, !tbaa !4
  %20 = icmp eq i8 %19, 0
  br i1 %20, label %21, label %tostringbuffFloat.exit

21:                                               ; preds = %16
  %22 = tail call ptr @localeconv() #18
  %23 = load ptr, ptr %22, align 8, !tbaa !17
  %24 = load i8, ptr %23, align 1, !tbaa !4
  %25 = sext i32 %.0.i to i64
  %26 = getelementptr inbounds i8, ptr %1, i64 %25
  store i8 %24, ptr %26, align 1, !tbaa !4
  %27 = add nsw i32 %.0.i, 2
  %28 = getelementptr i8, ptr %26, i64 1
  store i8 48, ptr %28, align 1, !tbaa !4
  br label %tostringbuffFloat.exit

tostringbuffFloat.exit:                           ; preds = %21, %16, %6
  %.0 = phi i32 [ %8, %6 ], [ %27, %21 ], [ %.0.i, %16 ]
  ret i32 %.0
}